; ModuleID = '44/756.c'
source_filename = "44/756.c"
target datalayout = "e-m:e-p270:32:32-p271:32:32-p272:64:64-i64:64-f80:128-n8:16:32:64-S128"
target triple = "x86_64-pc-linux-gnu"

@.str = private unnamed_addr constant [3 x i8] c"%d\00", align 1
@.str.1 = private unnamed_addr constant [4 x i8] c"%d\0A\00", align 1

; Function Attrs: noinline nounwind uwtable
define dso_local i32 @reverse(i32 %0) #0 {
  %2 = alloca i32, align 4
  %3 = alloca i32, align 4
  %4 = alloca i32, align 4
  %5 = alloca i32, align 4
  store i32 %0, i32* %2, align 4
  store i32 0, i32* %4, align 4
  store i32 0, i32* %5, align 4
  %6 = load i32, i32* %2, align 4
  %7 = icmp eq i32 %6, 0
  br i1 %7, label %11, label %8

8:                                                ; preds = %1
  %9 = load i32, i32* %2, align 4
  %10 = icmp eq i32 %9, 0
  br i1 %10, label %11, label %12

11:                                               ; preds = %8, %1
  store i32 0, i32* %3, align 4
  br label %47

12:                                               ; preds = %8
  %13 = load i32, i32* %2, align 4
  %14 = icmp slt i32 %13, 0
  br i1 %14, label %15, label %18

15:                                               ; preds = %12
  %16 = load i32, i32* %2, align 4
  %17 = sub nsw i32 0, %16
  store i32 %17, i32* %2, align 4
  store i32 1, i32* %5, align 4
  br label %18

18:                                               ; preds = %15, %12
  br label %19

19:                                               ; preds = %23, %18
  %20 = load i32, i32* %2, align 4
  %21 = srem i32 %20, 10
  %22 = icmp eq i32 %21, 0
  br i1 %22, label %23, label %26

23:                                               ; preds = %19
  %24 = load i32, i32* %2, align 4
  %25 = sdiv i32 %24, 10
  store i32 %25, i32* %2, align 4
  br label %19

26:                                               ; preds = %19
  br label %27

27:                                               ; preds = %30, %26
  %28 = load i32, i32* %2, align 4
  %29 = icmp ne i32 %28, 0
  br i1 %29, label %30, label %38

30:                                               ; preds = %27
  %31 = load i32, i32* %4, align 4
  %32 = mul nsw i32 %31, 10
  %33 = load i32, i32* %2, align 4
  %34 = srem i32 %33, 10
  %35 = add nsw i32 %32, %34
  store i32 %35, i32* %4, align 4
  %36 = load i32, i32* %2, align 4
  %37 = sdiv i32 %36, 10
  store i32 %37, i32* %2, align 4
  br label %27

38:                                               ; preds = %27
  %39 = load i32, i32* %5, align 4
  %40 = icmp eq i32 %39, 0
  br i1 %40, label %41, label %43

41:                                               ; preds = %38
  %42 = load i32, i32* %4, align 4
  store i32 %42, i32* %3, align 4
  br label %46

43:                                               ; preds = %38
  %44 = load i32, i32* %4, align 4
  %45 = sub nsw i32 0, %44
  store i32 %45, i32* %3, align 4
  br label %46

46:                                               ; preds = %43, %41
  br label %47

47:                                               ; preds = %46, %11
  %48 = load i32, i32* %3, align 4
  ret i32 %48
}

; Function Attrs: noinline nounwind uwtable
define dso_local void @main() #0 {
  %1 = alloca i32, align 4
  %2 = alloca i32, align 4
  store i32 1, i32* %2, align 4
  br label %3

3:                                                ; preds = %11, %0
  %4 = load i32, i32* %2, align 4
  %5 = icmp sle i32 %4, 6
  br i1 %5, label %6, label %14

6:                                                ; preds = %3
  %7 = call i32 (i8*, ...) @__isoc99_scanf(i8* getelementptr inbounds ([3 x i8], [3 x i8]* @.str, i64 0, i64 0), i32* %1)
  %8 = load i32, i32* %1, align 4
  %9 = call i32 @reverse(i32 %8)
  %10 = call i32 (i8*, ...) @printf(i8* getelementptr inbounds ([4 x i8], [4 x i8]* @.str.1, i64 0, i64 0), i32 %9)
  br label %11

11:                                               ; preds = %6
  %12 = load i32, i32* %2, align 4
  %13 = add nsw i32 %12, 1
  store i32 %13, i32* %2, align 4
  br label %3

14:                                               ; preds = %3
  ret void
}

declare dso_local i32 @__isoc99_scanf(i8*, ...) #1

declare dso_local i32 @printf(i8*, ...) #1


!llvm.module.flags = !{!0}
!llvm.ident = !{!1}

!0 = !{i32 1, !"wchar_size", i32 4}
!1 = !{!"clang version 10.0.0-4ubuntu1 "}
